target datalayout = "e-m:e-p270:32:32-p271:32:32-p272:64:64-i64:64-i128:128-f80:128-n8:16:32:64-S128"
target triple = "x86_64-pc-linux-gnu"

%struct._zend_op_array = type { i8, [3 x i8], i32, ptr, ptr, ptr, i32, i32, ptr, ptr, ptr, ptr, i32, ptr, i32, i32, i32, ptr, ptr, ptr, ptr, ptr, i32, i32, ptr, ptr, ptr, i32, i32, i32, i32, ptr, ptr, [6 x ptr] }
%struct._zend_ssa = type { %struct._zend_cfg, i32, i32, ptr, ptr, ptr, ptr }
%struct._zend_cfg = type { i32, i32, ptr, ptr, ptr, i32 }
%struct._zend_ssa_var_info = type { i32, i8, %struct._zend_ssa_range, ptr }
%struct._zend_ssa_range = type { i64, i64, i8, i8 }
%struct._zend_ssa_op = type { i32, i32, i32, i32, i32, i32, i32, i32, i32 }
%struct._zend_arg_info = type { ptr, %struct.zend_type, ptr }
%struct.zend_type = type { ptr, i32 }

; Function Attrs: inlinehint nounwind uwtable
define internal zeroext i1 @can_elide_return_type_check(ptr noundef %0, ptr noundef %1, ptr noundef %2, ptr noundef %3) #7 {
  %5 = alloca i1, align 1
  %6 = alloca ptr, align 8
  %7 = alloca ptr, align 8
  %8 = alloca ptr, align 8
  %9 = alloca ptr, align 8
  %10 = alloca ptr, align 8
  %11 = alloca ptr, align 8
  %12 = alloca i32, align 4
  %13 = alloca i32, align 4
  %14 = alloca i32, align 4
  store ptr %0, ptr %6, align 8, !tbaa !127
  store ptr %1, ptr %7, align 8, !tbaa !4
  store ptr %2, ptr %8, align 8, !tbaa !11
  store ptr %3, ptr %9, align 8, !tbaa !81
  call void @llvm.lifetime.start.p0(i64 8, ptr %10) #13
  %15 = load ptr, ptr %7, align 8, !tbaa !4
  %16 = getelementptr inbounds nuw %struct._zend_op_array, ptr %15, i32 0, i32 8
  %17 = load ptr, ptr %16, align 8, !tbaa !128
  %18 = getelementptr inbounds %struct._zend_arg_info, ptr %17, i64 -1
  store ptr %18, ptr %10, align 8, !tbaa !129
  call void @llvm.lifetime.start.p0(i64 8, ptr %11) #13
  %19 = load ptr, ptr %8, align 8, !tbaa !11
  %20 = getelementptr inbounds nuw %struct._zend_ssa, ptr %19, i32 0, i32 6
  %21 = load ptr, ptr %20, align 8, !tbaa !103
  %22 = load ptr, ptr %9, align 8, !tbaa !81
  %23 = getelementptr inbounds nuw %struct._zend_ssa_op, ptr %22, i32 0, i32 0
  %24 = load i32, ptr %23, align 4, !tbaa !82
  %25 = sext i32 %24 to i64
  %26 = getelementptr inbounds %struct._zend_ssa_var_info, ptr %21, i64 %25
  store ptr %26, ptr %11, align 8, !tbaa !130
  call void @llvm.lifetime.start.p0(i64 4, ptr %12) #13
  %27 = load ptr, ptr %11, align 8, !tbaa !130
  %28 = getelementptr inbounds nuw %struct._zend_ssa_var_info, ptr %27, i32 0, i32 0
  %29 = load i32, ptr %28, align 8, !tbaa !109
  %30 = and i32 %29, 1023
  store i32 %30, ptr %12, align 4, !tbaa !42
  %31 = load i32, ptr %12, align 4, !tbaa !42
  %32 = and i32 %31, 1024
  %33 = icmp ne i32 %32, 0
  br i1 %33, label %34, label %35

34:                                               ; preds = %4
  store i1 false, ptr %5, align 1
  store i32 1, ptr %13, align 4
  br label %84

35:                                               ; preds = %4
  %36 = load i32, ptr %12, align 4, !tbaa !42
  %37 = and i32 %36, 1
  %38 = icmp ne i32 %37, 0
  br i1 %38, label %39, label %44

39:                                               ; preds = %35
  %40 = load i32, ptr %12, align 4, !tbaa !42
  %41 = and i32 %40, -2
  store i32 %41, ptr %12, align 4, !tbaa !42
  %42 = load i32, ptr %12, align 4, !tbaa !42
  %43 = or i32 %42, 2
  store i32 %43, ptr %12, align 4, !tbaa !42
  br label %44

44:                                               ; preds = %39, %35
  call void @llvm.lifetime.start.p0(i64 4, ptr %14) #13
  %45 = load i32, ptr %12, align 4, !tbaa !42
  %46 = load ptr, ptr %10, align 8, !tbaa !129
  %47 = getelementptr inbounds nuw %struct._zend_arg_info, ptr %46, i32 0, i32 1
  %48 = getelementptr inbounds nuw %struct.zend_type, ptr %47, i32 0, i32 1
  %49 = load i32, ptr %48, align 8, !tbaa !131
  %50 = and i32 %49, 262143
  %51 = xor i32 %50, -1
  %52 = and i32 %45, %51
  store i32 %52, ptr %14, align 4, !tbaa !42
  %53 = load i32, ptr %14, align 4, !tbaa !42
  %54 = icmp ne i32 %53, 0
  br i1 %54, label %56, label %55

55:                                               ; preds = %44
  store i1 true, ptr %5, align 1
  store i32 1, ptr %13, align 4
  br label %83

56:                                               ; preds = %44
  %57 = load i32, ptr %14, align 4, !tbaa !42
  %58 = icmp eq i32 %57, 256
  br i1 %58, label %59, label %82

59:                                               ; preds = %56
  %60 = load ptr, ptr %11, align 8, !tbaa !130
  %61 = getelementptr inbounds nuw %struct._zend_ssa_var_info, ptr %60, i32 0, i32 3
  %62 = load ptr, ptr %61, align 8, !tbaa !134
  %63 = icmp ne ptr %62, null
  br i1 %63, label %64, label %82

64:                                               ; preds = %59
  %65 = load ptr, ptr %10, align 8, !tbaa !129
  %66 = getelementptr inbounds nuw %struct._zend_arg_info, ptr %65, i32 0, i32 1
  %67 = getelementptr inbounds nuw %struct.zend_type, ptr %66, i32 0, i32 1
  %68 = load i32, ptr %67, align 8, !tbaa !131
  %69 = and i32 %68, 29360128
  %70 = icmp ne i32 %69, 0
  br i1 %70, label %71, label %82

71:                                               ; preds = %64
  %72 = load ptr, ptr %6, align 8, !tbaa !127
  %73 = load ptr, ptr %7, align 8, !tbaa !4
  %74 = load ptr, ptr %11, align 8, !tbaa !130
  %75 = load ptr, ptr %10, align 8, !tbaa !129
  %76 = getelementptr inbounds nuw %struct._zend_arg_info, ptr %75, i32 0, i32 1
  %77 = getelementptr inbounds nuw { ptr, i32 }, ptr %76, i32 0, i32 0
  %78 = load ptr, ptr %77, align 8
  %79 = getelementptr inbounds nuw { ptr, i32 }, ptr %76, i32 0, i32 1
  %80 = load i32, ptr %79, align 8
  %81 = call zeroext i1 @can_elide_list_type(ptr noundef %72, ptr noundef %73, ptr noundef %74, ptr %78, i32 %80)
  store i1 %81, ptr %5, align 1
  store i32 1, ptr %13, align 4
  br label %83

82:                                               ; preds = %64, %59, %56
  store i1 false, ptr %5, align 1
  store i32 1, ptr %13, align 4
  br label %83

83:                                               ; preds = %82, %71, %55
  call void @llvm.lifetime.end.p0(i64 4, ptr %14) #13
  br label %84

84:                                               ; preds = %83, %34
  call void @llvm.lifetime.end.p0(i64 4, ptr %12) #13
  call void @llvm.lifetime.end.p0(i64 8, ptr %11) #13
  call void @llvm.lifetime.end.p0(i64 8, ptr %10) #13
  %85 = load i1, ptr %5, align 1
  ret i1 %85
}