; Function Attrs: inlinehint nounwind uwtable
define internal fastcc zeroext i1 @can_elide_return_type_check(ptr noundef %0, ptr noundef %1, ptr readonly captures(none) %.72.val, i32 %.0.val) unnamed_addr #5 {
  %3 = getelementptr inbounds nuw i8, ptr %1, i64 40
  %4 = load ptr, ptr %3, align 8, !tbaa !93
  %5 = sext i32 %.0.val to i64
  %6 = getelementptr inbounds %struct._zend_ssa_var_info, ptr %.72.val, i64 %5
  %7 = load i32, ptr %6, align 8, !tbaa !90
  %8 = and i32 %7, 1023
  %9 = and i32 %7, 1
  %.not = icmp eq i32 %9, 0
  %10 = and i32 %7, 1020
  %11 = or disjoint i32 %10, 2
  %.018 = select i1 %.not, i32 %8, i32 %11
  %12 = getelementptr inbounds i8, ptr %4, i64 -24
  %13 = getelementptr inbounds i8, ptr %4, i64 -16
  %14 = load i32, ptr %13, align 8, !tbaa !94
  %15 = xor i32 %14, -1
  %16 = and i32 %.018, %15
  switch i32 %16, label %24 [
    i32 0, label %25
    i32 256, label %17
  ]

17:                                               ; preds = %2
  %18 = getelementptr inbounds nuw i8, ptr %6, i64 32
  %19 = load ptr, ptr %18, align 8, !tbaa !97
  %.not21 = icmp eq ptr %19, null
  %20 = and i32 %14, 29360128
  %.not22 = icmp eq i32 %20, 0
  %or.cond = or i1 %.not22, %.not21
  br i1 %or.cond, label %24, label %21

21:                                               ; preds = %17
  %22 = load ptr, ptr %12, align 8
  %23 = tail call fastcc zeroext i1 @can_elide_list_type(ptr noundef %0, ptr noundef nonnull %1, ptr noundef nonnull %6, ptr %22, i32 %14)
  br label %25

24:                                               ; preds = %2, %17
  br label %25

25:                                               ; preds = %21, %24, %2
  %.1 = phi i1 [ %23, %21 ], [ false, %24 ], [ true, %2 ]
  ret i1 %.1
}